; Function Attrs: mustprogress nounwind uwtable
define dso_local noundef zeroext i1 @_ZNK4llvm15TreePredicateFn28isPredefinedPredicateEqualToENS_9StringRefEb(ptr nocapture noundef nonnull readonly align 8 dereferenceable(8) %0, ptr %1, i64 %2, i1 noundef zeroext %3) local_unnamed_addr #0 align 2 {
  %5 = alloca i8, align 1
  %6 = load ptr, ptr %0, align 8
  %7 = getelementptr inbounds nuw i8, ptr %6, i64 48
  %8 = load ptr, ptr %7, align 8
  %9 = call noundef zeroext i1 @_ZNK4llvm6Record20getValueAsBitOrUnsetENS_9StringRefERb(ptr noundef nonnull align 8 dereferenceable(192) %8, ptr %1, i64 %2, ptr noundef nonnull align 1 dereferenceable(1) %5) #29
  %10 = load i8, ptr %5, align 1
  %11 = trunc i8 %10 to i1
  %12 = xor i1 %3, %9
  %.0.demorgan = or i1 %12, %11
  %.0 = xor i1 %.0.demorgan, true
  ret i1 %.0
}